; ModuleID = '14/1295.c'
source_filename = "14/1295.c"
target datalayout = "e-m:e-p270:32:32-p271:32:32-p272:64:64-i64:64-f80:128-n8:16:32:64-S128"
target triple = "x86_64-pc-linux-gnu"

%struct.student = type { i32, i32, i32, i32 }

@.str = private unnamed_addr constant [3 x i8] c"%d\00", align 1
@.str.1 = private unnamed_addr constant [9 x i8] c"%d %d %d\00", align 1
@.str.2 = private unnamed_addr constant [7 x i8] c"%d %d\0A\00", align 1

; Function Attrs: noinline nounwind uwtable
define dso_local void @main() #0 {
  %1 = alloca i32, align 4
  %2 = alloca i32, align 4
  %3 = alloca i32, align 4
  %4 = alloca i32, align 4
  %5 = alloca i32, align 4
  %6 = alloca [99999 x %struct.student], align 16
  store i32 0, i32* %3, align 4
  store i32 0, i32* %4, align 4
  store i32 0, i32* %5, align 4
  %7 = call i32 (i8*, ...) @__isoc99_scanf(i8* getelementptr inbounds ([3 x i8], [3 x i8]* @.str, i64 0, i64 0), i32* %1)
  store i32 0, i32* %2, align 4
  br label %8

8:                                                ; preds = %41, %0
  %9 = load i32, i32* %2, align 4
  %10 = load i32, i32* %1, align 4
  %11 = icmp slt i32 %9, %10
  br i1 %11, label %12, label %44

12:                                               ; preds = %8
  %13 = load i32, i32* %2, align 4
  %14 = sext i32 %13 to i64
  %15 = getelementptr inbounds [99999 x %struct.student], [99999 x %struct.student]* %6, i64 0, i64 %14
  %16 = getelementptr inbounds %struct.student, %struct.student* %15, i32 0, i32 0
  %17 = load i32, i32* %2, align 4
  %18 = sext i32 %17 to i64
  %19 = getelementptr inbounds [99999 x %struct.student], [99999 x %struct.student]* %6, i64 0, i64 %18
  %20 = getelementptr inbounds %struct.student, %struct.student* %19, i32 0, i32 1
  %21 = load i32, i32* %2, align 4
  %22 = sext i32 %21 to i64
  %23 = getelementptr inbounds [99999 x %struct.student], [99999 x %struct.student]* %6, i64 0, i64 %22
  %24 = getelementptr inbounds %struct.student, %struct.student* %23, i32 0, i32 2
  %25 = call i32 (i8*, ...) @__isoc99_scanf(i8* getelementptr inbounds ([9 x i8], [9 x i8]* @.str.1, i64 0, i64 0), i32* %16, i32* %20, i32* %24)
  %26 = load i32, i32* %2, align 4
  %27 = sext i32 %26 to i64
  %28 = getelementptr inbounds [99999 x %struct.student], [99999 x %struct.student]* %6, i64 0, i64 %27
  %29 = getelementptr inbounds %struct.student, %struct.student* %28, i32 0, i32 1
  %30 = load i32, i32* %29, align 4
  %31 = load i32, i32* %2, align 4
  %32 = sext i32 %31 to i64
  %33 = getelementptr inbounds [99999 x %struct.student], [99999 x %struct.student]* %6, i64 0, i64 %32
  %34 = getelementptr inbounds %struct.student, %struct.student* %33, i32 0, i32 2
  %35 = load i32, i32* %34, align 8
  %36 = add nsw i32 %30, %35
  %37 = load i32, i32* %2, align 4
  %38 = sext i32 %37 to i64
  %39 = getelementptr inbounds [99999 x %struct.student], [99999 x %struct.student]* %6, i64 0, i64 %38
  %40 = getelementptr inbounds %struct.student, %struct.student* %39, i32 0, i32 3
  store i32 %36, i32* %40, align 4
  br label %41

41:                                               ; preds = %12
  %42 = load i32, i32* %2, align 4
  %43 = add nsw i32 %42, 1
  store i32 %43, i32* %2, align 4
  br label %8

44:                                               ; preds = %8
  store i32 0, i32* %2, align 4
  br label %45

45:                                               ; preds = %64, %44
  %46 = load i32, i32* %2, align 4
  %47 = load i32, i32* %1, align 4
  %48 = icmp slt i32 %46, %47
  br i1 %48, label %49, label %67

49:                                               ; preds = %45
  %50 = load i32, i32* %2, align 4
  %51 = sext i32 %50 to i64
  %52 = getelementptr inbounds [99999 x %struct.student], [99999 x %struct.student]* %6, i64 0, i64 %51
  %53 = getelementptr inbounds %struct.student, %struct.student* %52, i32 0, i32 3
  %54 = load i32, i32* %53, align 4
  %55 = load i32, i32* %3, align 4
  %56 = sext i32 %55 to i64
  %57 = getelementptr inbounds [99999 x %struct.student], [99999 x %struct.student]* %6, i64 0, i64 %56
  %58 = getelementptr inbounds %struct.student, %struct.student* %57, i32 0, i32 3
  %59 = load i32, i32* %58, align 4
  %60 = icmp sgt i32 %54, %59
  br i1 %60, label %61, label %63

61:                                               ; preds = %49
  %62 = load i32, i32* %2, align 4
  store i32 %62, i32* %3, align 4
  br label %63

63:                                               ; preds = %61, %49
  br label %64

64:                                               ; preds = %63
  %65 = load i32, i32* %2, align 4
  %66 = add nsw i32 %65, 1
  store i32 %66, i32* %2, align 4
  br label %45

67:                                               ; preds = %45
  store i32 0, i32* %2, align 4
  br label %68

68:                                               ; preds = %80, %67
  %69 = load i32, i32* %2, align 4
  %70 = load i32, i32* %1, align 4
  %71 = icmp slt i32 %69, %70
  br i1 %71, label %72, label %83

72:                                               ; preds = %68
  br label %73

73:                                               ; preds = %72
  %74 = load i32, i32* %2, align 4
  %75 = load i32, i32* %3, align 4
  %76 = icmp ne i32 %74, %75
  br i1 %76, label %77, label %79

77:                                               ; preds = %73
  %78 = load i32, i32* %2, align 4
  store i32 %78, i32* %4, align 4
  br label %79

79:                                               ; preds = %77, %73
  br label %83

80:                                               ; No predecessors!
  %81 = load i32, i32* %2, align 4
  %82 = add nsw i32 %81, 1
  store i32 %82, i32* %2, align 4
  br label %68

83:                                               ; preds = %79, %68
  store i32 0, i32* %2, align 4
  br label %84

84:                                               ; preds = %108, %83
  %85 = load i32, i32* %2, align 4
  %86 = load i32, i32* %1, align 4
  %87 = icmp slt i32 %85, %86
  br i1 %87, label %88, label %111

88:                                               ; preds = %84
  %89 = load i32, i32* %2, align 4
  %90 = load i32, i32* %3, align 4
  %91 = icmp ne i32 %89, %90
  br i1 %91, label %92, label %107

92:                                               ; preds = %88
  %93 = load i32, i32* %2, align 4
  %94 = sext i32 %93 to i64
  %95 = getelementptr inbounds [99999 x %struct.student], [99999 x %struct.student]* %6, i64 0, i64 %94
  %96 = getelementptr inbounds %struct.student, %struct.student* %95, i32 0, i32 3
  %97 = load i32, i32* %96, align 4
  %98 = load i32, i32* %4, align 4
  %99 = sext i32 %98 to i64
  %100 = getelementptr inbounds [99999 x %struct.student], [99999 x %struct.student]* %6, i64 0, i64 %99
  %101 = getelementptr inbounds %struct.student, %struct.student* %100, i32 0, i32 3
  %102 = load i32, i32* %101, align 4
  %103 = icmp sgt i32 %97, %102
  br i1 %103, label %104, label %106

104:                                              ; preds = %92
  %105 = load i32, i32* %2, align 4
  store i32 %105, i32* %4, align 4
  br label %106

106:                                              ; preds = %104, %92
  br label %107

107:                                              ; preds = %106, %88
  br label %108

108:                                              ; preds = %107
  %109 = load i32, i32* %2, align 4
  %110 = add nsw i32 %109, 1
  store i32 %110, i32* %2, align 4
  br label %84

111:                                              ; preds = %84
  store i32 0, i32* %2, align 4
  br label %112

112:                                              ; preds = %130, %111
  %113 = load i32, i32* %2, align 4
  %114 = load i32, i32* %1, align 4
  %115 = icmp slt i32 %113, %114
  br i1 %115, label %116, label %133

116:                                              ; preds = %112
  br label %117

117:                                              ; preds = %116
  %118 = load i32, i32* %2, align 4
  %119 = load i32, i32* %3, align 4
  %120 = icmp ne i32 %118, %119
  br i1 %120, label %121, label %125

121:                                              ; preds = %117
  %122 = load i32, i32* %2, align 4
  %123 = load i32, i32* %4, align 4
  %124 = icmp ne i32 %122, %123
  br label %125

125:                                              ; preds = %121, %117
  %126 = phi i1 [ false, %117 ], [ %124, %121 ]
  br i1 %126, label %127, label %129

127:                                              ; preds = %125
  %128 = load i32, i32* %2, align 4
  store i32 %128, i32* %5, align 4
  br label %129

129:                                              ; preds = %127, %125
  br label %133

130:                                              ; No predecessors!
  %131 = load i32, i32* %2, align 4
  %132 = add nsw i32 %131, 1
  store i32 %132, i32* %2, align 4
  br label %112

133:                                              ; preds = %129, %112
  store i32 0, i32* %2, align 4
  br label %134

134:                                              ; preds = %162, %133
  %135 = load i32, i32* %2, align 4
  %136 = load i32, i32* %1, align 4
  %137 = icmp slt i32 %135, %136
  br i1 %137, label %138, label %165

138:                                              ; preds = %134
  %139 = load i32, i32* %2, align 4
  %140 = load i32, i32* %3, align 4
  %141 = icmp ne i32 %139, %140
  br i1 %141, label %142, label %161

142:                                              ; preds = %138
  %143 = load i32, i32* %2, align 4
  %144 = load i32, i32* %4, align 4
  %145 = icmp ne i32 %143, %144
  br i1 %145, label %146, label %161

146:                                              ; preds = %142
  %147 = load i32, i32* %2, align 4
  %148 = sext i32 %147 to i64
  %149 = getelementptr inbounds [99999 x %struct.student], [99999 x %struct.student]* %6, i64 0, i64 %148
  %150 = getelementptr inbounds %struct.student, %struct.student* %149, i32 0, i32 3
  %151 = load i32, i32* %150, align 4
  %152 = load i32, i32* %5, align 4
  %153 = sext i32 %152 to i64
  %154 = getelementptr inbounds [99999 x %struct.student], [99999 x %struct.student]* %6, i64 0, i64 %153
  %155 = getelementptr inbounds %struct.student, %struct.student* %154, i32 0, i32 3
  %156 = load i32, i32* %155, align 4
  %157 = icmp sgt i32 %151, %156
  br i1 %157, label %158, label %160

158:                                              ; preds = %146
  %159 = load i32, i32* %2, align 4
  store i32 %159, i32* %5, align 4
  br label %160

160:                                              ; preds = %158, %146
  br label %161

161:                                              ; preds = %160, %142, %138
  br label %162

162:                                              ; preds = %161
  %163 = load i32, i32* %2, align 4
  %164 = add nsw i32 %163, 1
  store i32 %164, i32* %2, align 4
  br label %134

165:                                              ; preds = %134
  %166 = load i32, i32* %3, align 4
  %167 = add nsw i32 %166, 1
  %168 = load i32, i32* %3, align 4
  %169 = sext i32 %168 to i64
  %170 = getelementptr inbounds [99999 x %struct.student], [99999 x %struct.student]* %6, i64 0, i64 %169
  %171 = getelementptr inbounds %struct.student, %struct.student* %170, i32 0, i32 3
  %172 = load i32, i32* %171, align 4
  %173 = call i32 (i8*, ...) @printf(i8* getelementptr inbounds ([7 x i8], [7 x i8]* @.str.2, i64 0, i64 0), i32 %167, i32 %172)
  %174 = load i32, i32* %4, align 4
  %175 = add nsw i32 %174, 1
  %176 = load i32, i32* %4, align 4
  %177 = sext i32 %176 to i64
  %178 = getelementptr inbounds [99999 x %struct.student], [99999 x %struct.student]* %6, i64 0, i64 %177
  %179 = getelementptr inbounds %struct.student, %struct.student* %178, i32 0, i32 3
  %180 = load i32, i32* %179, align 4
  %181 = call i32 (i8*, ...) @printf(i8* getelementptr inbounds ([7 x i8], [7 x i8]* @.str.2, i64 0, i64 0), i32 %175, i32 %180)
  %182 = load i32, i32* %5, align 4
  %183 = add nsw i32 %182, 1
  %184 = load i32, i32* %5, align 4
  %185 = sext i32 %184 to i64
  %186 = getelementptr inbounds [99999 x %struct.student], [99999 x %struct.student]* %6, i64 0, i64 %185
  %187 = getelementptr inbounds %struct.student, %struct.student* %186, i32 0, i32 3
  %188 = load i32, i32* %187, align 4
  %189 = call i32 (i8*, ...) @printf(i8* getelementptr inbounds ([7 x i8], [7 x i8]* @.str.2, i64 0, i64 0), i32 %183, i32 %188)
  ret void
}

declare dso_local i32 @__isoc99_scanf(i8*, ...) #1

declare dso_local i32 @printf(i8*, ...) #1


!llvm.module.flags = !{!0}
!llvm.ident = !{!1}

!0 = !{i32 1, !"wchar_size", i32 4}
!1 = !{!"clang version 10.0.0-4ubuntu1 "}
